; Function Attrs: mustprogress uwtable
define hidden void @_ZNK2cv8ximgproc16GuidedFilterImpl19ComputeBeta_ParBodyclERKNS_5RangeE(ptr noundef nonnull readonly align 8 captures(none) dereferenceable(40) %0, ptr noundef nonnull readonly align 4 captures(none) dereferenceable(8) %1) unnamed_addr #3 align 2 {
  %3 = alloca [4 x ptr], align 16
  %4 = getelementptr inbounds nuw i8, ptr %0, i64 24
  %5 = load ptr, ptr %4, align 8, !tbaa !102
  %6 = getelementptr inbounds nuw i8, ptr %5, i64 8
  %7 = load ptr, ptr %6, align 8, !tbaa !56
  %8 = load ptr, ptr %5, align 8, !tbaa !29
  %9 = ptrtoint ptr %7 to i64
  %10 = ptrtoint ptr %8 to i64
  %11 = sub i64 %9, %10
  %12 = sdiv exact i64 %11, 96
  %13 = load i32, ptr %1, align 4, !tbaa !19
  %14 = getelementptr inbounds nuw i8, ptr %1, i64 4
  %15 = load i32, ptr %14, align 4, !tbaa !21
  %16 = icmp slt i32 %13, %15
  br i1 %16, label %.lr.ph34, label %._crit_edge35

.lr.ph34:                                         ; preds = %2
  %17 = trunc i64 %12 to i32
  %18 = getelementptr inbounds nuw i8, ptr %0, i64 8
  %19 = icmp sgt i32 %17, 0
  %20 = getelementptr inbounds nuw i8, ptr %0, i64 32
  %21 = getelementptr inbounds nuw i8, ptr %0, i64 16
  br i1 %19, label %.lr.ph34.split.us.preheader, label %.lr.ph34.split

.lr.ph34.split.us.preheader:                      ; preds = %.lr.ph34
  %22 = sext i32 %13 to i64
  %.pre = load ptr, ptr %18, align 8, !tbaa !104
  %wide.trip.count70 = and i64 %12, 2147483647
  br label %.lr.ph34.split.us

.lr.ph34.split.us:                                ; preds = %.lr.ph34.split.us.preheader, %._crit_edge31.us
  %23 = phi i32 [ %15, %.lr.ph34.split.us.preheader ], [ %78, %._crit_edge31.us ]
  %24 = phi ptr [ %.pre, %.lr.ph34.split.us.preheader ], [ %79, %._crit_edge31.us ]
  %25 = phi ptr [ %.pre, %.lr.ph34.split.us.preheader ], [ %80, %._crit_edge31.us ]
  %indvars.iv72 = phi i64 [ %22, %.lr.ph34.split.us.preheader ], [ %indvars.iv.next73, %._crit_edge31.us ]
  call void @llvm.lifetime.start.p0(i64 32, ptr nonnull %3) #22
  %26 = getelementptr inbounds nuw i8, ptr %25, i64 152
  %27 = load i32, ptr %26, align 8, !tbaa !23
  %28 = icmp sgt i32 %27, 0
  br i1 %28, label %.lr.ph.us, label %._crit_edge31.us

.lr.ph30.split.us38:                              ; preds = %66, %._crit_edge.us
  %29 = phi ptr [ %43, %._crit_edge.us ], [ %24, %66 ]
  %indvars.iv67 = phi i64 [ %indvars.iv.next68, %._crit_edge.us ], [ 0, %66 ]
  %30 = load ptr, ptr %20, align 8, !tbaa !105
  %31 = load ptr, ptr %30, align 8, !tbaa !29
  %32 = getelementptr inbounds nuw %"class.cv::Mat", ptr %31, i64 %indvars.iv67
  %33 = getelementptr inbounds nuw i8, ptr %32, i64 16
  %34 = load ptr, ptr %33, align 8, !tbaa !30
  %35 = getelementptr inbounds nuw i8, ptr %32, i64 72
  %36 = load ptr, ptr %35, align 8, !tbaa !39
  %37 = load i64, ptr %36, align 8, !tbaa !40
  %38 = mul i64 %37, %indvars.iv72
  %39 = getelementptr inbounds nuw i8, ptr %34, i64 %38
  %40 = getelementptr inbounds nuw i8, ptr %29, i64 152
  %41 = load i32, ptr %40, align 8, !tbaa !23
  %42 = icmp sgt i32 %41, 0
  br i1 %42, label %.lr.ph28.us, label %._crit_edge.us

._crit_edge.us:                                   ; preds = %.lr.ph28.us, %.lr.ph30.split.us38
  %43 = phi ptr [ %29, %.lr.ph30.split.us38 ], [ %61, %.lr.ph28.us ]
  %indvars.iv.next68 = add nuw nsw i64 %indvars.iv67, 1
  %exitcond71.not = icmp eq i64 %indvars.iv.next68, %wide.trip.count70
  br i1 %exitcond71.not, label %._crit_edge31.us.loopexit, label %.lr.ph30.split.us38, !llvm.loop !106

.lr.ph28.us:                                      ; preds = %.lr.ph30.split.us38, %.lr.ph28.us
  %indvars.iv64 = phi i64 [ %indvars.iv.next65, %.lr.ph28.us ], [ 0, %.lr.ph30.split.us38 ]
  %44 = phi ptr [ %61, %.lr.ph28.us ], [ %29, %.lr.ph30.split.us38 ]
  %45 = load ptr, ptr %21, align 8, !tbaa !107
  %46 = load ptr, ptr %45, align 8, !tbaa !80
  %47 = getelementptr inbounds nuw %"class.std::vector", ptr %46, i64 %indvars.iv67
  %48 = load ptr, ptr %47, align 8, !tbaa !29
  %49 = getelementptr inbounds nuw %"class.cv::Mat", ptr %48, i64 %indvars.iv64
  %50 = getelementptr inbounds nuw i8, ptr %49, i64 16
  %51 = load ptr, ptr %50, align 8, !tbaa !30
  %52 = getelementptr inbounds nuw i8, ptr %49, i64 72
  %53 = load ptr, ptr %52, align 8, !tbaa !39
  %54 = load i64, ptr %53, align 8, !tbaa !40
  %55 = mul i64 %54, %indvars.iv72
  %56 = getelementptr inbounds nuw i8, ptr %51, i64 %55
  %57 = getelementptr inbounds nuw [4 x ptr], ptr %3, i64 0, i64 %indvars.iv64
  %58 = load ptr, ptr %57, align 8, !tbaa !108
  %59 = getelementptr inbounds nuw i8, ptr %44, i64 36
  %60 = load i32, ptr %59, align 4, !tbaa !42
  tail call void @_ZN2cv8ximgproc10intrinsics7sub_mulEPfS2_S2_i(ptr noundef %39, ptr noundef %56, ptr noundef %58, i32 noundef %60)
  %indvars.iv.next65 = add nuw nsw i64 %indvars.iv64, 1
  %61 = load ptr, ptr %18, align 8, !tbaa !104
  %62 = getelementptr inbounds nuw i8, ptr %61, i64 152
  %63 = load i32, ptr %62, align 8, !tbaa !23
  %64 = sext i32 %63 to i64
  %65 = icmp slt i64 %indvars.iv.next65, %64
  br i1 %65, label %.lr.ph28.us, label %._crit_edge.us, !llvm.loop !110

66:                                               ; preds = %.lr.ph.us, %66
  %indvars.iv59 = phi i64 [ 0, %.lr.ph.us ], [ %indvars.iv.next60, %66 ]
  %67 = getelementptr inbounds nuw %"class.cv::Mat", ptr %77, i64 %indvars.iv59
  %68 = getelementptr inbounds nuw i8, ptr %67, i64 16
  %69 = load ptr, ptr %68, align 8, !tbaa !30
  %70 = getelementptr inbounds nuw i8, ptr %67, i64 72
  %71 = load ptr, ptr %70, align 8, !tbaa !39
  %72 = load i64, ptr %71, align 8, !tbaa !40
  %73 = mul i64 %72, %indvars.iv72
  %74 = getelementptr inbounds nuw i8, ptr %69, i64 %73
  %75 = getelementptr inbounds nuw [4 x ptr], ptr %3, i64 0, i64 %indvars.iv59
  store ptr %74, ptr %75, align 8, !tbaa !108
  %indvars.iv.next60 = add nuw nsw i64 %indvars.iv59, 1
  %exitcond63.not = icmp eq i64 %indvars.iv.next60, %wide.trip.count62
  br i1 %exitcond63.not, label %.lr.ph30.split.us38, label %66, !llvm.loop !111

.lr.ph.us:                                        ; preds = %.lr.ph34.split.us
  %76 = getelementptr inbounds nuw i8, ptr %25, i64 72
  %77 = load ptr, ptr %76, align 8, !tbaa !29
  %wide.trip.count62 = zext nneg i32 %27 to i64
  br label %66

._crit_edge31.us.loopexit:                        ; preds = %._crit_edge.us
  %.pre75 = load i32, ptr %14, align 4, !tbaa !21
  br label %._crit_edge31.us

._crit_edge31.us:                                 ; preds = %.lr.ph34.split.us, %._crit_edge31.us.loopexit
  %78 = phi i32 [ %.pre75, %._crit_edge31.us.loopexit ], [ %23, %.lr.ph34.split.us ]
  %79 = phi ptr [ %43, %._crit_edge31.us.loopexit ], [ %24, %.lr.ph34.split.us ]
  %80 = phi ptr [ %43, %._crit_edge31.us.loopexit ], [ %25, %.lr.ph34.split.us ]
  call void @llvm.lifetime.end.p0(i64 32, ptr nonnull %3) #22
  %indvars.iv.next73 = add nsw i64 %indvars.iv72, 1
  %81 = sext i32 %78 to i64
  %82 = icmp slt i64 %indvars.iv.next73, %81
  br i1 %82, label %.lr.ph34.split.us, label %._crit_edge35, !llvm.loop !112

.lr.ph34.split:                                   ; preds = %.lr.ph34
  %83 = load ptr, ptr %18, align 8, !tbaa !104
  %84 = getelementptr inbounds nuw i8, ptr %83, i64 152
  %85 = load i32, ptr %84, align 8, !tbaa !23
  %86 = icmp sgt i32 %85, 0
  br i1 %86, label %.lr.ph34.split.split.us, label %._crit_edge35

.lr.ph34.split.split.us:                          ; preds = %.lr.ph34.split
  %87 = getelementptr inbounds nuw i8, ptr %83, i64 72
  %88 = load ptr, ptr %87, align 8, !tbaa !29
  %89 = sext i32 %13 to i64
  %90 = sext i32 %15 to i64
  %wide.trip.count54 = zext nneg i32 %85 to i64
  br label %.lr.ph.us42

.lr.ph.us42:                                      ; preds = %..preheader_crit_edge.us43, %.lr.ph34.split.split.us
  %indvars.iv56 = phi i64 [ %indvars.iv.next57, %..preheader_crit_edge.us43 ], [ %89, %.lr.ph34.split.split.us ]
  call void @llvm.lifetime.start.p0(i64 32, ptr nonnull %3) #22
  br label %91

91:                                               ; preds = %.lr.ph.us42, %91
  %indvars.iv51 = phi i64 [ 0, %.lr.ph.us42 ], [ %indvars.iv.next52, %91 ]
  %92 = getelementptr inbounds nuw %"class.cv::Mat", ptr %88, i64 %indvars.iv51
  %93 = getelementptr inbounds nuw i8, ptr %92, i64 16
  %94 = load ptr, ptr %93, align 8, !tbaa !30
  %95 = getelementptr inbounds nuw i8, ptr %92, i64 72
  %96 = load ptr, ptr %95, align 8, !tbaa !39
  %97 = load i64, ptr %96, align 8, !tbaa !40
  %98 = mul i64 %97, %indvars.iv56
  %99 = getelementptr inbounds nuw i8, ptr %94, i64 %98
  %100 = getelementptr inbounds nuw [4 x ptr], ptr %3, i64 0, i64 %indvars.iv51
  store ptr %99, ptr %100, align 8, !tbaa !108
  %indvars.iv.next52 = add nuw nsw i64 %indvars.iv51, 1
  %exitcond55.not = icmp eq i64 %indvars.iv.next52, %wide.trip.count54
  br i1 %exitcond55.not, label %..preheader_crit_edge.us43, label %91, !llvm.loop !111

..preheader_crit_edge.us43:                       ; preds = %91
  call void @llvm.lifetime.end.p0(i64 32, ptr nonnull %3) #22
  %indvars.iv.next57 = add nsw i64 %indvars.iv56, 1
  %101 = icmp slt i64 %indvars.iv.next57, %90
  br i1 %101, label %.lr.ph.us42, label %._crit_edge35, !llvm.loop !112

._crit_edge35:                                    ; preds = %..preheader_crit_edge.us43, %._crit_edge31.us, %.lr.ph34.split, %2
  ret void
}